target datalayout = "e-m:e-p270:32:32-p271:32:32-p272:64:64-i64:64-i128:128-f80:128-n8:16:32:64-S128"
target triple = "x86_64-unknown-linux-gnu"

%"class.facebook::jsi::Value" = type { i32, %"union.facebook::jsi::Value::Data" }
%"union.facebook::jsi::Value::Data" = type { double }
%"class.facebook::jsi::Object" = type { %"class.facebook::jsi::Pointer" }
%"class.facebook::jsi::Pointer" = type { ptr }
%"class.std::initializer_list" = type { ptr, i64 }
%"class.facebook::jsi::Array" = type { %"class.facebook::jsi::Object" }

@_ZN8facebook3jsi5ValueC1ERNS0_7RuntimeERKS1_ = unnamed_addr alias void (ptr, ptr, ptr), ptr @_ZN8facebook3jsi5ValueC2ERNS0_7RuntimeERKS1_
@_ZN8facebook3jsi5ValueD1Ev = unnamed_addr alias void (ptr), ptr @_ZN8facebook3jsi5ValueD2Ev

; Function Attrs: mustprogress nounwind uwtable
define linkonce_odr void @_ZN8facebook3jsi7PointerC2EOS1_(ptr noundef nonnull align 8 dereferenceable(8) %this, ptr noundef nonnull align 8 dereferenceable(8) %other) unnamed_addr #0 comdat align 2 {
entry:
  %this.addr = alloca ptr, align 8
  %other.addr = alloca ptr, align 8
  store ptr %this, ptr %this.addr, align 8
  store ptr %other, ptr %other.addr, align 8
  %this1 = load ptr, ptr %this.addr, align 8
  %ptr_ = getelementptr inbounds %"class.facebook::jsi::Pointer", ptr %this1, i32 0, i32 0
  %0 = load ptr, ptr %other.addr, align 8
  %ptr_2 = getelementptr inbounds %"class.facebook::jsi::Pointer", ptr %0, i32 0, i32 0
  %1 = load ptr, ptr %ptr_2, align 8
  store ptr %1, ptr %ptr_, align 8
  %2 = load ptr, ptr %other.addr, align 8
  %ptr_3 = getelementptr inbounds %"class.facebook::jsi::Pointer", ptr %2, i32 0, i32 0
  store ptr null, ptr %ptr_3, align 8
  ret void
}

; Function Attrs: mustprogress nounwind uwtable
define linkonce_odr void @_ZN8facebook3jsi7PointerD2Ev(ptr noundef nonnull align 8 dereferenceable(8) %this) unnamed_addr #0 comdat align 2 personality ptr @__gxx_personality_v0 {
entry:
  %this.addr = alloca ptr, align 8
  store ptr %this, ptr %this.addr, align 8
  %this1 = load ptr, ptr %this.addr, align 8
  %ptr_ = getelementptr inbounds %"class.facebook::jsi::Pointer", ptr %this1, i32 0, i32 0
  %0 = load ptr, ptr %ptr_, align 8
  %tobool = icmp ne ptr %0, null
  br i1 %tobool, label %if.then, label %if.end

if.then:                                          ; preds = %entry
  %ptr_2 = getelementptr inbounds %"class.facebook::jsi::Pointer", ptr %this1, i32 0, i32 0
  %1 = load ptr, ptr %ptr_2, align 8
  %vtable = load ptr, ptr %1, align 8
  %vfn = getelementptr inbounds ptr, ptr %vtable, i64 0
  %2 = load ptr, ptr %vfn, align 8
  invoke void %2(ptr noundef nonnull align 8 dereferenceable(8) %1)
          to label %invoke.cont unwind label %terminate.lpad

invoke.cont:                                      ; preds = %if.then
  br label %if.end

if.end:                                           ; preds = %invoke.cont, %entry
  ret void

terminate.lpad:                                   ; preds = %if.then
  %3 = landingpad { ptr, i32 }
          catch ptr null
  %4 = extractvalue { ptr, i32 } %3, 0
  call void @__clang_call_terminate(ptr %4) #15
  unreachable
}

; Function Attrs: mustprogress nounwind uwtable
define linkonce_odr void @_ZN8facebook3jsi6ObjectC2EOS1_(ptr noundef nonnull align 8 dereferenceable(8) %this, ptr noundef nonnull align 8 dereferenceable(8) %other) unnamed_addr #0 comdat align 2 {
entry:
  %this.addr = alloca ptr, align 8
  %other.addr = alloca ptr, align 8
  store ptr %this, ptr %this.addr, align 8
  store ptr %other, ptr %other.addr, align 8
  %this1 = load ptr, ptr %this.addr, align 8
  %0 = load ptr, ptr %other.addr, align 8
  call void @_ZN8facebook3jsi7PointerC2EOS1_(ptr noundef nonnull align 8 dereferenceable(8) %this1, ptr noundef nonnull align 8 dereferenceable(8) %0)
  ret void
}

; Function Attrs: mustprogress nounwind uwtable
define linkonce_odr void @_ZN8facebook3jsi6ObjectD2Ev(ptr noundef nonnull align 8 dereferenceable(8) %this) unnamed_addr #0 comdat align 2 {
entry:
  %this.addr = alloca ptr, align 8
  store ptr %this, ptr %this.addr, align 8
  %this1 = load ptr, ptr %this.addr, align 8
  call void @_ZN8facebook3jsi7PointerD2Ev(ptr noundef nonnull align 8 dereferenceable(8) %this1) #6
  ret void
}

; Function Attrs: mustprogress uwtable
define linkonce_odr void @_ZNK8facebook3jsi5Array19setValueAtIndexImplERNS0_7RuntimeEmRKNS0_5ValueE(ptr noundef nonnull align 8 dereferenceable(8) %this, ptr noundef nonnull align 8 dereferenceable(8) %runtime, i64 noundef %i, ptr noundef nonnull align 8 dereferenceable(16) %value) #2 comdat align 2 {
entry:
  %this.addr = alloca ptr, align 8
  %runtime.addr = alloca ptr, align 8
  %i.addr = alloca i64, align 8
  %value.addr = alloca ptr, align 8
  store ptr %this, ptr %this.addr, align 8
  store ptr %runtime, ptr %runtime.addr, align 8
  store i64 %i, ptr %i.addr, align 8
  store ptr %value, ptr %value.addr, align 8
  %this1 = load ptr, ptr %this.addr, align 8
  %0 = load ptr, ptr %runtime.addr, align 8
  %1 = load i64, ptr %i.addr, align 8
  %2 = load ptr, ptr %value.addr, align 8
  %vtable = load ptr, ptr %0, align 8
  %vfn = getelementptr inbounds ptr, ptr %vtable, i64 59
  %3 = load ptr, ptr %vfn, align 8
  call void %3(ptr noundef nonnull align 8 dereferenceable(8) %0, ptr noundef nonnull align 8 dereferenceable(8) %this1, i64 noundef %1, ptr noundef nonnull align 8 dereferenceable(16) %2)
  ret void
}

; Function Attrs: mustprogress uwtable
define linkonce_odr hidden void @_ZN8facebook3jsi6detail7toValueERNS0_7RuntimeERKNS0_5ValueE(ptr noalias sret(%"class.facebook::jsi::Value") align 8 %agg.result, ptr noundef nonnull align 8 dereferenceable(8) %runtime, ptr noundef nonnull align 8 dereferenceable(16) %value) #2 comdat {
entry:
  %result.ptr = alloca ptr, align 8
  %runtime.addr = alloca ptr, align 8
  %value.addr = alloca ptr, align 8
  store ptr %agg.result, ptr %result.ptr, align 8
  store ptr %runtime, ptr %runtime.addr, align 8
  store ptr %value, ptr %value.addr, align 8
  %0 = load ptr, ptr %runtime.addr, align 8
  %1 = load ptr, ptr %value.addr, align 8
  call void @_ZN8facebook3jsi5ValueC1ERNS0_7RuntimeERKS1_(ptr noundef nonnull align 8 dereferenceable(16) %agg.result, ptr noundef nonnull align 8 dereferenceable(8) %0, ptr noundef nonnull align 8 dereferenceable(16) %1)
  ret void
}

; Function Attrs: mustprogress uwtable
define linkonce_odr void @_ZN8facebook3jsi5ArrayC2EOS1_(ptr noundef nonnull align 8 dereferenceable(8) %this, ptr noundef nonnull align 8 dereferenceable(8) %0) unnamed_addr #2 comdat align 2 {
entry:
  %this.addr = alloca ptr, align 8
  %.addr = alloca ptr, align 8
  store ptr %this, ptr %this.addr, align 8
  store ptr %0, ptr %.addr, align 8
  %this1 = load ptr, ptr %this.addr, align 8
  %1 = load ptr, ptr %.addr, align 8
  call void @_ZN8facebook3jsi6ObjectC2EOS1_(ptr noundef nonnull align 8 dereferenceable(8) %this1, ptr noundef nonnull align 8 dereferenceable(8) %1)
  ret void
}

; Function Attrs: mustprogress nounwind uwtable
define linkonce_odr void @_ZN8facebook3jsi5ArrayD2Ev(ptr noundef nonnull align 8 dereferenceable(8) %this) unnamed_addr #0 comdat align 2 {
entry:
  %this.addr = alloca ptr, align 8
  store ptr %this, ptr %this.addr, align 8
  %this1 = load ptr, ptr %this.addr, align 8
  call void @_ZN8facebook3jsi6ObjectD2Ev(ptr noundef nonnull align 8 dereferenceable(8) %this1) #6
  ret void
}

; Function Attrs: mustprogress uwtable
define linkonce_odr void @_ZNK8facebook3jsi5Array15setValueAtIndexIRKNS0_5ValueEEEvRNS0_7RuntimeEmOT_(ptr noundef nonnull align 8 dereferenceable(8) %this, ptr noundef nonnull align 8 dereferenceable(8) %runtime, i64 noundef %i, ptr noundef nonnull align 8 dereferenceable(16) %value) #2 comdat align 2 personality ptr @__gxx_personality_v0 {
entry:
  %this.addr = alloca ptr, align 8
  %runtime.addr = alloca ptr, align 8
  %i.addr = alloca i64, align 8
  %value.addr = alloca ptr, align 8
  %ref.tmp = alloca %"class.facebook::jsi::Value", align 8
  %exn.slot = alloca ptr, align 8
  %ehselector.slot = alloca i32, align 4
  store ptr %this, ptr %this.addr, align 8
  store ptr %runtime, ptr %runtime.addr, align 8
  store i64 %i, ptr %i.addr, align 8
  store ptr %value, ptr %value.addr, align 8
  %this1 = load ptr, ptr %this.addr, align 8
  %0 = load ptr, ptr %runtime.addr, align 8
  %1 = load i64, ptr %i.addr, align 8
  %2 = load ptr, ptr %runtime.addr, align 8
  %3 = load ptr, ptr %value.addr, align 8
  call void @_ZN8facebook3jsi6detail7toValueERNS0_7RuntimeERKNS0_5ValueE(ptr sret(%"class.facebook::jsi::Value") align 8 %ref.tmp, ptr noundef nonnull align 8 dereferenceable(8) %2, ptr noundef nonnull align 8 dereferenceable(16) %3)
  invoke void @_ZNK8facebook3jsi5Array19setValueAtIndexImplERNS0_7RuntimeEmRKNS0_5ValueE(ptr noundef nonnull align 8 dereferenceable(8) %this1, ptr noundef nonnull align 8 dereferenceable(8) %0, i64 noundef %1, ptr noundef nonnull align 8 dereferenceable(16) %ref.tmp)
          to label %invoke.cont unwind label %lpad

invoke.cont:                                      ; preds = %entry
  call void @_ZN8facebook3jsi5ValueD1Ev(ptr noundef nonnull align 8 dereferenceable(16) %ref.tmp) #6
  ret void

lpad:                                             ; preds = %entry
  %4 = landingpad { ptr, i32 }
          cleanup
  %5 = extractvalue { ptr, i32 } %4, 0
  store ptr %5, ptr %exn.slot, align 8
  %6 = extractvalue { ptr, i32 } %4, 1
  store i32 %6, ptr %ehselector.slot, align 4
  call void @_ZN8facebook3jsi5ValueD1Ev(ptr noundef nonnull align 8 dereferenceable(16) %ref.tmp) #6
  br label %eh.resume

eh.resume:                                        ; preds = %lpad
  %exn = load ptr, ptr %exn.slot, align 8
  %sel = load i32, ptr %ehselector.slot, align 4
  %lpad.val = insertvalue { ptr, i32 } poison, ptr %exn, 0
  %lpad.val2 = insertvalue { ptr, i32 } %lpad.val, i32 %sel, 1
  resume { ptr, i32 } %lpad.val2
}

; Function Attrs: mustprogress nounwind uwtable
define linkonce_odr noundef ptr @_ZNKSt16initializer_listIN8facebook3jsi5ValueEE3endEv(ptr noundef nonnull align 8 dereferenceable(16) %this) #0 comdat align 2 {
entry:
  %this.addr = alloca ptr, align 8
  store ptr %this, ptr %this.addr, align 8
  %this1 = load ptr, ptr %this.addr, align 8
  %call = call noundef ptr @_ZNKSt16initializer_listIN8facebook3jsi5ValueEE5beginEv(ptr noundef nonnull align 8 dereferenceable(16) %this1) #6
  %call2 = call noundef i64 @_ZNKSt16initializer_listIN8facebook3jsi5ValueEE4sizeEv(ptr noundef nonnull align 8 dereferenceable(16) %this1) #6
  %add.ptr = getelementptr inbounds %"class.facebook::jsi::Value", ptr %call, i64 %call2
  ret ptr %add.ptr
}

; Function Attrs: mustprogress nounwind uwtable
define linkonce_odr noundef ptr @_ZNKSt16initializer_listIN8facebook3jsi5ValueEE5beginEv(ptr noundef nonnull align 8 dereferenceable(16) %this) #0 comdat align 2 {
entry:
  %this.addr = alloca ptr, align 8
  store ptr %this, ptr %this.addr, align 8
  %this1 = load ptr, ptr %this.addr, align 8
  %_M_array = getelementptr inbounds %"class.std::initializer_list", ptr %this1, i32 0, i32 0
  %0 = load ptr, ptr %_M_array, align 8
  ret ptr %0
}

; Function Attrs: mustprogress uwtable
define linkonce_odr void @_ZN8facebook3jsi5ArrayC2ERNS0_7RuntimeEm(ptr noundef nonnull align 8 dereferenceable(8) %this, ptr noundef nonnull align 8 dereferenceable(8) %runtime, i64 noundef %length) unnamed_addr #2 comdat align 2 personality ptr @__gxx_personality_v0 {
entry:
  %this.addr = alloca ptr, align 8
  %runtime.addr = alloca ptr, align 8
  %length.addr = alloca i64, align 8
  %ref.tmp = alloca %"class.facebook::jsi::Array", align 8
  %exn.slot = alloca ptr, align 8
  %ehselector.slot = alloca i32, align 4
  store ptr %this, ptr %this.addr, align 8
  store ptr %runtime, ptr %runtime.addr, align 8
  store i64 %length, ptr %length.addr, align 8
  %this1 = load ptr, ptr %this.addr, align 8
  %0 = load ptr, ptr %runtime.addr, align 8
  %1 = load i64, ptr %length.addr, align 8
  %vtable = load ptr, ptr %0, align 8
  %vfn = getelementptr inbounds ptr, ptr %vtable, i64 53
  %2 = load ptr, ptr %vfn, align 8
  call void %2(ptr sret(%"class.facebook::jsi::Array") align 8 %ref.tmp, ptr noundef nonnull align 8 dereferenceable(8) %0, i64 noundef %1)
  invoke void @_ZN8facebook3jsi5ArrayC2EOS1_(ptr noundef nonnull align 8 dereferenceable(8) %this1, ptr noundef nonnull align 8 dereferenceable(8) %ref.tmp)
          to label %invoke.cont unwind label %lpad

invoke.cont:                                      ; preds = %entry
  call void @_ZN8facebook3jsi5ArrayD2Ev(ptr noundef nonnull align 8 dereferenceable(8) %ref.tmp) #6
  ret void

lpad:                                             ; preds = %entry
  %3 = landingpad { ptr, i32 }
          cleanup
  %4 = extractvalue { ptr, i32 } %3, 0
  store ptr %4, ptr %exn.slot, align 8
  %5 = extractvalue { ptr, i32 } %3, 1
  store i32 %5, ptr %ehselector.slot, align 4
  call void @_ZN8facebook3jsi5ArrayD2Ev(ptr noundef nonnull align 8 dereferenceable(8) %ref.tmp) #6
  br label %eh.resume

eh.resume:                                        ; preds = %lpad
  %exn = load ptr, ptr %exn.slot, align 8
  %sel = load i32, ptr %ehselector.slot, align 4
  %lpad.val = insertvalue { ptr, i32 } poison, ptr %exn, 0
  %lpad.val2 = insertvalue { ptr, i32 } %lpad.val, i32 %sel, 1
  resume { ptr, i32 } %lpad.val2
}

; Function Attrs: mustprogress nounwind uwtable
define linkonce_odr noundef i64 @_ZNKSt16initializer_listIN8facebook3jsi5ValueEE4sizeEv(ptr noundef nonnull align 8 dereferenceable(16) %this) #0 comdat align 2 {
entry:
  %this.addr = alloca ptr, align 8
  store ptr %this, ptr %this.addr, align 8
  %this1 = load ptr, ptr %this.addr, align 8
  %_M_len = getelementptr inbounds %"class.std::initializer_list", ptr %this1, i32 0, i32 1
  %0 = load i64, ptr %_M_len, align 8
  ret i64 %0
}

; Function Attrs: mustprogress uwtable
define void @_ZN8facebook3jsi5Array18createWithElementsERNS0_7RuntimeESt16initializer_listINS0_5ValueEE(ptr noalias sret(%"class.facebook::jsi::Array") align 8 %agg.result, ptr noundef nonnull align 8 dereferenceable(8) %rt, ptr %elements.coerce0, i64 %elements.coerce1) #2 align 2 personality ptr @__gxx_personality_v0 {
entry:
  %result.ptr = alloca ptr, align 8
  %elements = alloca %"class.std::initializer_list", align 8
  %rt.addr = alloca ptr, align 8
  %nrvo = alloca i1, align 1
  %index = alloca i64, align 8
  %__range2 = alloca ptr, align 8
  %__begin2 = alloca ptr, align 8
  %__end2 = alloca ptr, align 8
  %element = alloca ptr, align 8
  %exn.slot = alloca ptr, align 8
  %ehselector.slot = alloca i32, align 4
  store ptr %agg.result, ptr %result.ptr, align 8
  %0 = getelementptr inbounds { ptr, i64 }, ptr %elements, i32 0, i32 0
  store ptr %elements.coerce0, ptr %0, align 8
  %1 = getelementptr inbounds { ptr, i64 }, ptr %elements, i32 0, i32 1
  store i64 %elements.coerce1, ptr %1, align 8
  store ptr %rt, ptr %rt.addr, align 8
  store i1 false, ptr %nrvo, align 1
  %2 = load ptr, ptr %rt.addr, align 8
  %call = call noundef i64 @_ZNKSt16initializer_listIN8facebook3jsi5ValueEE4sizeEv(ptr noundef nonnull align 8 dereferenceable(16) %elements) #6
  call void @_ZN8facebook3jsi5ArrayC2ERNS0_7RuntimeEm(ptr noundef nonnull align 8 dereferenceable(8) %agg.result, ptr noundef nonnull align 8 dereferenceable(8) %2, i64 noundef %call)
  store i64 0, ptr %index, align 8
  store ptr %elements, ptr %__range2, align 8
  %3 = load ptr, ptr %__range2, align 8
  %call1 = call noundef ptr @_ZNKSt16initializer_listIN8facebook3jsi5ValueEE5beginEv(ptr noundef nonnull align 8 dereferenceable(16) %3) #6
  store ptr %call1, ptr %__begin2, align 8
  %4 = load ptr, ptr %__range2, align 8
  %call2 = call noundef ptr @_ZNKSt16initializer_listIN8facebook3jsi5ValueEE3endEv(ptr noundef nonnull align 8 dereferenceable(16) %4) #6
  store ptr %call2, ptr %__end2, align 8
  br label %for.cond

for.cond:                                         ; preds = %for.inc, %entry
  %5 = load ptr, ptr %__begin2, align 8
  %6 = load ptr, ptr %__end2, align 8
  %cmp = icmp ne ptr %5, %6
  br i1 %cmp, label %for.body, label %for.end

for.body:                                         ; preds = %for.cond
  %7 = load ptr, ptr %__begin2, align 8
  store ptr %7, ptr %element, align 8
  %8 = load ptr, ptr %rt.addr, align 8
  %9 = load i64, ptr %index, align 8
  %inc = add i64 %9, 1
  store i64 %inc, ptr %index, align 8
  %10 = load ptr, ptr %element, align 8
  invoke void @_ZNK8facebook3jsi5Array15setValueAtIndexIRKNS0_5ValueEEEvRNS0_7RuntimeEmOT_(ptr noundef nonnull align 8 dereferenceable(8) %agg.result, ptr noundef nonnull align 8 dereferenceable(8) %8, i64 noundef %9, ptr noundef nonnull align 8 dereferenceable(16) %10)
          to label %invoke.cont unwind label %lpad

invoke.cont:                                      ; preds = %for.body
  br label %for.inc

for.inc:                                          ; preds = %invoke.cont
  %11 = load ptr, ptr %__begin2, align 8
  %incdec.ptr = getelementptr inbounds %"class.facebook::jsi::Value", ptr %11, i32 1
  store ptr %incdec.ptr, ptr %__begin2, align 8
  br label %for.cond

lpad:                                             ; preds = %for.body
  %12 = landingpad { ptr, i32 }
          cleanup
  %13 = extractvalue { ptr, i32 } %12, 0
  store ptr %13, ptr %exn.slot, align 8
  %14 = extractvalue { ptr, i32 } %12, 1
  store i32 %14, ptr %ehselector.slot, align 4
  call void @_ZN8facebook3jsi5ArrayD2Ev(ptr noundef nonnull align 8 dereferenceable(8) %agg.result) #6
  br label %eh.resume

for.end:                                          ; preds = %for.cond
  store i1 true, ptr %nrvo, align 1
  %nrvo.val = load i1, ptr %nrvo, align 1
  br i1 %nrvo.val, label %nrvo.skipdtor, label %nrvo.unused

nrvo.unused:                                      ; preds = %for.end
  call void @_ZN8facebook3jsi5ArrayD2Ev(ptr noundef nonnull align 8 dereferenceable(8) %agg.result) #6
  br label %nrvo.skipdtor

nrvo.skipdtor:                                    ; preds = %nrvo.unused, %for.end
  ret void

eh.resume:                                        ; preds = %lpad
  %exn = load ptr, ptr %exn.slot, align 8
  %sel = load i32, ptr %ehselector.slot, align 4
  %lpad.val = insertvalue { ptr, i32 } poison, ptr %exn, 0
  %lpad.val3 = insertvalue { ptr, i32 } %lpad.val, i32 %sel, 1
  resume { ptr, i32 } %lpad.val3
}