; Function Attrs: mustprogress uwtable
define void @_ZN8facebook3jsi5Array18createWithElementsERNS0_7RuntimeESt16initializer_listINS0_5ValueEE(ptr noalias sret(%"class.facebook::jsi::Array") align 8 %agg.result, ptr noundef nonnull align 8 dereferenceable(8) %rt, ptr %elements.coerce0, i64 %elements.coerce1) local_unnamed_addr #11 align 2 personality ptr @__gxx_personality_v0 {
entry:
  %ref.tmp.i5 = alloca %"class.facebook::jsi::Value", align 8
  %ref.tmp.i = alloca %"class.facebook::jsi::Array", align 8
  call void @llvm.lifetime.start.p0(i64 8, ptr nonnull %ref.tmp.i)
  %vtable.i = load ptr, ptr %rt, align 8
  %vfn.i = getelementptr inbounds i8, ptr %vtable.i, i64 424
  %0 = load ptr, ptr %vfn.i, align 8
  call void %0(ptr nonnull sret(%"class.facebook::jsi::Array") align 8 %ref.tmp.i, ptr noundef nonnull align 8 dereferenceable(8) %rt, i64 noundef %elements.coerce1)
  %1 = load ptr, ptr %ref.tmp.i, align 8
  store ptr %1, ptr %agg.result, align 8
  call void @llvm.lifetime.end.p0(i64 8, ptr nonnull %ref.tmp.i)
  %add.ptr.i = getelementptr inbounds %"class.facebook::jsi::Value", ptr %elements.coerce0, i64 %elements.coerce1
  %cmp.not8 = icmp eq i64 %elements.coerce1, 0
  br i1 %cmp.not8, label %nrvo.skipdtor, label %for.body

for.body:                                         ; preds = %entry, %for.inc
  %index.010 = phi i64 [ %inc, %for.inc ], [ 0, %entry ]
  %__begin2.09 = phi ptr [ %incdec.ptr, %for.inc ], [ %elements.coerce0, %entry ]
  call void @llvm.lifetime.start.p0(i64 16, ptr nonnull %ref.tmp.i5)
  invoke void @_ZN8facebook3jsi5ValueC1ERNS0_7RuntimeERKS1_(ptr noundef nonnull align 8 dereferenceable(16) %ref.tmp.i5, ptr noundef nonnull align 8 dereferenceable(8) %rt, ptr noundef nonnull align 8 dereferenceable(16) %__begin2.09)
          to label %.noexc unwind label %lpad

.noexc:                                           ; preds = %for.body
  %vtable.i.i = load ptr, ptr %rt, align 8
  %vfn.i.i = getelementptr inbounds i8, ptr %vtable.i.i, i64 472
  %2 = load ptr, ptr %vfn.i.i, align 8
  invoke void %2(ptr noundef nonnull align 8 dereferenceable(8) %rt, ptr noundef nonnull align 8 dereferenceable(8) %agg.result, i64 noundef %index.010, ptr noundef nonnull align 8 dereferenceable(16) %ref.tmp.i5)
          to label %for.inc unwind label %lpad.i

lpad.i:                                           ; preds = %.noexc
  %3 = landingpad { ptr, i32 }
          cleanup
  call void @_ZN8facebook3jsi5ValueD1Ev(ptr noundef nonnull align 8 dereferenceable(16) %ref.tmp.i5) #23
  br label %lpad.body

for.inc:                                          ; preds = %.noexc
  call void @_ZN8facebook3jsi5ValueD1Ev(ptr noundef nonnull align 8 dereferenceable(16) %ref.tmp.i5) #23
  call void @llvm.lifetime.end.p0(i64 16, ptr nonnull %ref.tmp.i5)
  %inc = add nuw nsw i64 %index.010, 1
  %incdec.ptr = getelementptr inbounds i8, ptr %__begin2.09, i64 16
  %cmp.not = icmp eq ptr %incdec.ptr, %add.ptr.i
  br i1 %cmp.not, label %nrvo.skipdtor, label %for.body

lpad:                                             ; preds = %for.body
  %4 = landingpad { ptr, i32 }
          cleanup
  br label %lpad.body

lpad.body:                                        ; preds = %lpad.i, %lpad
  %eh.lpad-body = phi { ptr, i32 } [ %4, %lpad ], [ %3, %lpad.i ]
  %5 = load ptr, ptr %agg.result, align 8
  %tobool.not.i.i.i = icmp eq ptr %5, null
  br i1 %tobool.not.i.i.i, label %_ZN8facebook3jsi5ArrayD2Ev.exit, label %if.then.i.i.i

if.then.i.i.i:                                    ; preds = %lpad.body
  %vtable.i.i.i = load ptr, ptr %5, align 8
  %6 = load ptr, ptr %vtable.i.i.i, align 8
  invoke void %6(ptr noundef nonnull align 8 dereferenceable(8) %5)
          to label %_ZN8facebook3jsi5ArrayD2Ev.exit unwind label %terminate.lpad.i.i.i

terminate.lpad.i.i.i:                             ; preds = %if.then.i.i.i
  %7 = landingpad { ptr, i32 }
          catch ptr null
  %8 = extractvalue { ptr, i32 } %7, 0
  call void @__clang_call_terminate(ptr %8) #22
  unreachable

_ZN8facebook3jsi5ArrayD2Ev.exit:                  ; preds = %lpad.body, %if.then.i.i.i
  resume { ptr, i32 } %eh.lpad-body

nrvo.skipdtor:                                    ; preds = %for.inc, %entry
  ret void
}